Certificate:
    Data:
        Version: 3 (0x2)
        Serial Number: 0 (0x0)
        Signature Algorithm: sha1WithRSAEncryption
        Issuer: C=DE, ST=Bavaria, O=TU Muenchen, OU=SCCS, CN=SCCS_Certificate_Authority/emailAddress=admin@mailsccs.informatik.tu-muenchen.de
        Validity
            Not Before: Oct 14 09:59:34 2014 GMT
            Not After : Oct 13 09:59:34 2017 GMT
        Subject: C=DE, ST=Bavaria, O=TU Muenchen, OU=SCCS, CN=SCCS_Certificate_Authority/emailAddress=admin@mailsccs.informatik.tu-muenchen.de
        Subject Public Key Info:
            Public Key Algorithm: rsaEncryption
            RSA Public Key: (1024 bit)
                Modulus (1024 bit):
                    00:df:f4:61:18:32:d7:cb:d0:1c:71:57:b4:51:06:
                    78:ea:d0:97:27:ac:f9:8b:30:67:54:10:73:2a:29:
                    45:4b:94:43:21:65:1c:56:f9:34:43:71:db:f7:43:
                    6a:94:8f:3e:2c:cb:c3:a5:2d:9d:89:53:25:c2:43:
                    3a:ae:af:e7:a4:7a:c3:50:90:2c:35:11:22:8d:23:
                    94:1c:d7:6c:14:a1:cf:e7:0c:1e:c5:9d:0f:6a:d7:
                    5d:76:a1:27:a1:08:70:0e:39:ac:cd:22:88:f2:6d:
                    12:fd:b8:d1:4d:5a:9c:56:8f:8e:57:34:3e:4d:e5:
                    a3:4c:da:c6:9a:0c:e3:ad:47
                Exponent: 65537 (0x10001)
        X509v3 extensions:
            X509v3 Subject Key Identifier: 
                8E:7C:30:7F:F5:0D:8D:6E:2A:3E:7F:4E:34:06:B6:E6:E3:95:0C:09
            X509v3 Authority Key Identifier: 
                keyid:8E:7C:30:7F:F5:0D:8D:6E:2A:3E:7F:4E:34:06:B6:E6:E3:95:0C:09
                DirName:/C=DE/ST=Bavaria/O=TU Muenchen/OU=SCCS/CN=SCCS_Certificate_Authority/emailAddress=admin@mailsccs.informatik.tu-muenchen.de
                serial:00

            X509v3 Basic Constraints: 
                CA:TRUE
    Signature Algorithm: sha1WithRSAEncryption
        54:2e:17:3a:d7:85:aa:c4:fa:02:a1:49:25:e7:85:b1:14:ac:
        14:23:0e:7a:d0:ee:01:5d:8a:fa:99:75:b9:fa:db:0b:96:1c:
        6e:1f:19:18:2f:ec:40:e7:f2:08:f8:e4:02:62:e3:99:c9:c2:
        a6:28:72:1f:5f:30:b9:f3:4e:df:48:22:16:98:7d:14:08:db:
        00:81:63:4e:0a:ce:ad:82:93:c4:ee:32:73:e0:20:d6:0e:61:
        9a:0b:76:d2:fd:90:3f:a8:f1:a3:60:fa:9c:84:78:ac:0c:b5:
        60:aa:d4:15:a3:1c:5f:58:df:e2:bd:a9:c4:f7:39:e7:f0:ae:
        e1:67
-----BEGIN CERTIFICATE-----
MIIDwDCCAymgAwIBAgIBADANBgkqhkiG9w0BAQUFADCBojELMAkGA1UEBhMCREUx
EDAOBgNVBAgTB0JhdmFyaWExFDASBgNVBAoTC1RVIE11ZW5jaGVuMQ0wCwYDVQQL
EwRTQ0NTMSMwIQYDVQQDFBpTQ0NTX0NlcnRpZmljYXRlX0F1dGhvcml0eTE3MDUG
CSqGSIb3DQEJARYoYWRtaW5AbWFpbHNjY3MuaW5mb3JtYXRpay50dS1tdWVuY2hl
bi5kZTAeFw0xNDEwMTQwOTU5MzRaFw0xNzEwMTMwOTU5MzRaMIGiMQswCQYDVQQG
EwJERTEQMA4GA1UECBMHQmF2YXJpYTEUMBIGA1UEChMLVFUgTXVlbmNoZW4xDTAL
BgNVBAsTBFNDQ1MxIzAhBgNVBAMUGlNDQ1NfQ2VydGlmaWNhdGVfQXV0aG9yaXR5
MTcwNQYJKoZIhvcNAQkBFihhZG1pbkBtYWlsc2Njcy5pbmZvcm1hdGlrLnR1LW11
ZW5jaGVuLmRlMIGfMA0GCSqGSIb3DQEBAQUAA4GNADCBiQKBgQDf9GEYMtfL0Bxx
V7RRBnjq0JcnrPmLMGdUEHMqKUVLlEMhZRxW+TRDcdv3Q2qUjz4sy8OlLZ2JUyXC
Qzqur+ekesNQkCw1ESKNI5Qc12wUoc/nDB7FnQ9q1112oSehCHAOOazNIojybRL9
uNFNWpxWj45XND5N5aNM2saaDOOtRwIDAQABo4IBAjCB/zAdBgNVHQ4EFgQUjnww
f/UNjW4qPn9ONAa25uOVDAkwgc8GA1UdIwSBxzCBxIAUjnwwf/UNjW4qPn9ONAa2
5uOVDAmhgaikgaUwgaIxCzAJBgNVBAYTAkRFMRAwDgYDVQQIEwdCYXZhcmlhMRQw
EgYDVQQKEwtUVSBNdWVuY2hlbjENMAsGA1UECxMEU0NDUzEjMCEGA1UEAxQaU0ND
U19DZXJ0aWZpY2F0ZV9BdXRob3JpdHkxNzA1BgkqhkiG9w0BCQEWKGFkbWluQG1h
aWxzY2NzLmluZm9ybWF0aWsudHUtbXVlbmNoZW4uZGWCAQAwDAYDVR0TBAUwAwEB
/zANBgkqhkiG9w0BAQUFAAOBgQBULhc614WqxPoCoUkl54WxFKwUIw560O4BXYr6
mXW5+tsLlhxuHxkYL+xA5/II+OQCYuOZycKmKHIfXzC5807fSCIWmH0UCNsAgWNO
Cs6tgpPE7jJz4CDWDmGaC3bS/ZA/qPGjYPqchHisDLVgqtQVoxxfWN/ivanE9znn
8K7hZw==
-----END CERTIFICATE-----

